; Function Attrs: mustprogress nofree nounwind willreturn memory(write) uwtable
define noundef double @_ZN8QuantLib27unsafeShiftedSabrVolatilityEddddddddNS_14VolatilityTypeE(double noundef %strike, double noundef %forward, double noundef %expiryTime, double noundef %alpha, double noundef %beta, double noundef %nu, double noundef %rho, double noundef %shift, i32 noundef %volatilityType) local_unnamed_addr #0 {
entry:
  %cmp = icmp eq i32 %volatilityType, 1
  %add = fadd double %strike, %shift
  %add1 = fadd double %forward, %shift
  br i1 %cmp, label %if.then, label %if.else

if.then:                                          ; preds = %entry
  %call = tail call noundef double @_ZN8QuantLib26unsafeSabrNormalVolatilityEddddddd(double noundef %add, double noundef %add1, double noundef %expiryTime, double noundef %alpha, double noundef %beta, double noundef %nu, double noundef %rho)
  br label %return

if.else:                                          ; preds = %entry
  %call4 = tail call noundef double @_ZN8QuantLib29unsafeSabrLogNormalVolatilityEddddddd(double noundef %add, double noundef %add1, double noundef %expiryTime, double noundef %alpha, double noundef %beta, double noundef %nu, double noundef %rho)
  br label %return

return:                                           ; preds = %if.else, %if.then
  %retval.0 = phi double [ %call, %if.then ], [ %call4, %if.else ]
  ret double %retval.0
}